(inaomap
NaoMap
p0
(dp1
S'myy'
p2
I0
sS'Map'
p3
(dp4
(I31
I6
tp5
I2
s(I25
I19
tp6
I2
s(I16
I6
tp7
I2
s(I16
I9
tp8
I2
s(I32
I-18
tp9
I2
s(I23
I1
tp10
I2
s(I19
I4
tp11
I2
s(I23
I-1
tp12
I2
s(I24
I-6
tp13
I2
s(I16
I-7
tp14
I2
s(I20
I7
tp15
I2
s(I18
I19
tp16
I2
s(I21
I6
tp17
I2
s(I32
I-10
tp18
I2
s(I8
I5
tp19
I2
s(I32
I2
tp20
I2
s(I29
I-4
tp21
I2
s(I33
I3
tp22
I2
s(I28
I-3
tp23
I2
s(I17
I7
tp24
I2
s(I25
I0
tp25
I2
s(I22
I-5
tp26
I2
s(I14
I1
tp27
I2
s(I25
I15
tp28
I2
s(I15
I4
tp29
I2
s(I26
I12
tp30
I2
s(I14
I-10
tp31
I2
s(I29
I17
tp32
I2
s(I27
I1
tp33
I2
s(I30
I14
tp34
I2
s(I28
I10
tp35
I2
s(I27
I5
tp36
I2
s(I31
I15
tp37
I2
s(I27
I-14
tp38
I2
s(I9
I-9
tp39
I2
s(I26
I7
tp40
I2
s(I16
I0
tp41
I2
s(I19
I13
tp42
I2
s(I21
I-15
tp43
I2
s(I20
I14
tp44
I2
s(I20
I-16
tp45
I2
s(I31
I-21
tp46
I2
s(I21
I15
tp47
I2
s(I19
I-13
tp48
I2
s(I30
I-18
tp49
I2
s(I16
I-2
tp50
I2
s(I26
I-6
tp51
I2
s(I20
I-1
tp52
I2
s(I18
I-3
tp53
I2
s(I33
I4
tp54
I2
s(I23
I9
tp55
I2
s(I11
I8
tp56
I1
s(I28
I-12
tp57
I2
s(I30
I-16
tp58
I2
s(I29
I-17
tp59
I2
s(I14
I8
tp60
I2
s(I26
I-14
tp61
I2
s(I10
I-4
tp62
I0
s(I15
I13
tp63
I2
s(I15
I-8
tp64
I2
s(I25
I-15
tp65
I2
s(I23
I-13
tp66
I2
s(I14
I-7
tp67
I2
s(I27
I6
tp68
I2
s(I13
I5
tp69
I2
s(I9
I-5
tp70
I0
s(I28
I1
tp71
I2
s(I27
I14
tp72
I2
s(I29
I4
tp73
I2
s(I16
I7
tp74
I2
s(I32
I-4
tp75
I2
s(I8
I-7
tp76
I2
s(I17
I6
tp77
I2
s(I31
I18
tp78
I2
s(I25
I13
tp79
I2
s(I18
I-17
tp80
I2
s(I18
I5
tp81
I2
s(I22
I-10
tp82
I2
s(I22
I-17
tp83
I2
s(I29
I-2
tp84
I2
s(I21
I8
tp85
I2
s(I19
I-8
tp86
I2
s(I31
I4
tp87
I2
s(I32
I16
tp88
I2
s(I16
I-11
tp89
I2
s(I23
I6
tp90
I2
s(I7
I-3
tp91
I2
s(I10
I9
tp92
I2
s(I30
I-5
tp93
I2
s(I27
I-12
tp94
I2
s(I28
I-14
tp95
I2
s(I14
I19
tp96
I2
s(I26
I-3
tp97
I2
s(I9
I0
tp98
I2
s(I15
I10
tp99
I2
s(I21
I-3
tp100
I2
s(I13
I6
tp101
I2
s(I25
I2
tp102
I2
s(I30
I-6
tp103
I2
s(I24
I2
tp104
I2
s(I24
I-9
tp105
I2
s(I1
I0
tp106
I0
s(I25
I3
tp107
I2
s(I33
I-10
tp108
I2
s(I18
I-16
tp109
I2
s(I32
I-13
tp110
I2
s(I30
I2
tp111
I2
s(I28
I2
tp112
I2
s(I11
I-13
tp113
I2
s(I10
I7
tp114
I0
s(I18
I6
tp115
I2
s(I26
I3
tp116
I2
s(I19
I1
tp117
I2
s(I20
I-14
tp118
I2
s(I8
I0
tp119
I2
s(I32
I13
tp120
I2
s(I26
I-4
tp121
I2
s(I33
I8
tp122
I2
s(I10
I-1
tp123
I2
s(I34
I15
tp124
I2
s(I15
I19
tp125
I2
s(I1
I-1
tp126
I0
s(I24
I9
tp127
I2
s(I24
I-2
tp128
I2
s(I26
I-18
tp129
I2
s(I21
I9
tp130
I2
s(I25
I4
tp131
I2
s(I24
I14
tp132
I2
s(I15
I-12
tp133
I2
s(I23
I12
tp134
I2
s(I32
I-12
tp135
I2
s(I12
I-7
tp136
I2
s(I11
I-6
tp137
I2
s(I13
I7
tp138
I2
s(I30
I5
tp139
I2
s(I28
I13
tp140
I2
s(I31
I0
tp141
I2
s(I22
I-7
tp142
I2
s(I19
I6
tp143
I2
s(I17
I10
tp144
I2
s(I22
I17
tp145
I2
s(I13
I-13
tp146
I2
s(I20
I1
tp147
I2
s(I22
I-16
tp148
I2
s(I31
I-20
tp149
I2
s(I17
I-8
tp150
I2
s(I23
I5
tp151
I2
s(I27
I8
tp152
I2
s(I8
I7
tp153
I2
s(I32
I4
tp154
I2
s(I22
I11
tp155
I2
s(I29
I-6
tp156
I2
s(I33
I1
tp157
I2
s(I10
I5
tp158
I2
s(I27
I-8
tp159
I2
s(I14
I7
tp160
I2
s(I13
I-15
tp161
I2
s(I15
I6
tp162
I2
s(I15
I-3
tp163
I2
s(I14
I-12
tp164
I2
s(I27
I3
tp165
I2
s(I30
I12
tp166
I2
s(I28
I4
tp167
I2
s(I26
I-7
tp168
I2
s(I31
I9
tp169
I2
s(I33
I-6
tp170
I2
s(I29
I9
tp171
I2
s(I18
I-14
tp172
I2
s(I16
I2
tp173
I2
s(I27
I-13
tp174
I2
s(I19
I15
tp175
I2
s(I17
I3
tp176
I2
s(I23
I-17
tp177
I2
s(I20
I8
tp178
I2
s(I18
I8
tp179
I2
s(I17
I-15
tp180
I2
s(I19
I-11
tp181
I2
s(I30
I-20
tp182
I2
s(I22
I2
tp183
I2
s(I29
I-13
tp184
I2
s(I23
I11
tp185
I2
s(I28
I-10
tp186
I2
s(I30
I-10
tp187
I2
s(I26
I-2
tp188
I2
s(I14
I14
tp189
I2
s(I12
I10
tp190
I2
s(I15
I-6
tp191
I2
s(I25
I-9
tp192
I2
s(I28
I-1
tp193
I2
s(I0
I0
tp194
I1
s(I11
I1
tp195
I2
s(I10
I-7
tp196
I2
s(I23
I-9
tp197
I2
s(I14
I3
tp198
I2
s(I16
I-16
tp199
I2
s(I29
I2
tp200
I2
s(I13
I9
tp201
I2
s(I32
I-1
tp202
I2
s(I8
I-5
tp203
I2
s(I29
I11
tp204
I2
s(I17
I4
tp205
I2
s(I18
I3
tp206
I2
s(I19
I-6
tp207
I2
s(I22
I-6
tp208
I2
s(I32
I18
tp209
I2
s(I22
I5
tp210
I2
s(I22
I-14
tp211
I2
s(I31
I-8
tp212
I2
s(I31
I-13
tp213
I2
s(I30
I-7
tp214
I2
s(I32
I8
tp215
I2
s(I27
I-10
tp216
I2
s(I14
I17
tp217
I2
s(I12
I1
tp218
I2
s(I-1
I0
tp219
I0
s(I13
I4
tp220
I2
s(I24
I4
tp221
I2
s(I24
I-7
tp222
I2
s(I12
I-12
tp223
I2
s(I25
I1
tp224
I2
s(I17
I13
tp225
I2
s(I26
I6
tp226
I2
s(I33
I-12
tp227
I2
s(I32
I-11
tp228
I2
s(I30
I0
tp229
I2
s(I7
I6
tp230
I2
s(I31
I5
tp231
I2
s(I31
I-14
tp232
I2
s(I18
I-12
tp233
I2
s(I27
I-15
tp234
I2
s(I19
I-1
tp235
I2
s(I20
I4
tp236
I2
s(I20
I-18
tp237
I2
s(I17
I18
tp238
I2
s(I32
I15
tp239
I2
s(I23
I19
tp240
I2
s(I33
I14
tp241
I2
s(I30
I8
tp242
I2
s(I34
I13
tp243
I2
s(I9
I-4
tp244
I2
s(I16
I12
tp245
I2
s(I24
I11
tp246
I2
s(I14
I2
tp247
I2
s(I25
I10
tp248
I2
s(I15
I-10
tp249
I2
s(I28
I17
tp250
I2
s(I26
I1
tp251
I2
s(I14
I-13
tp252
I2
s(I27
I12
tp253
I2
s(I30
I11
tp254
I2
s(I28
I15
tp255
I2
s(I23
I-11
tp256
I2
s(I31
I2
tp257
I2
s(I16
I-1
tp258
I2
s(I29
I14
tp259
I2
s(I13
I11
tp260
I2
s(I16
I13
tp261
I2
s(I19
I8
tp262
I2
s(I21
I-12
tp263
I2
s(I20
I3
tp264
I2
s(I20
I-11
tp265
I2
s(I31
I-18
tp266
I2
s(I17
I-2
tp267
I2
s(I19
I-18
tp268
I2
s(I29
I-11
tp269
I2
s(I32
I6
tp270
I2
s(I16
I-5
tp271
I2
s(I25
I11
tp272
I2
s(I29
I-8
tp273
I2
s(I33
I7
tp274
I2
s(I31
I-12
tp275
I2
s(I31
I-15
tp276
I2
s(I28
I-7
tp277
I2
s(I15
I-9
tp278
I2
s(I27
I-6
tp279
I2
s(I24
I18
tp280
I2
s(I14
I5
tp281
I2
s(I26
I-9
tp282
I2
s(I13
I-17
tp283
I2
s(I15
I0
tp284
I2
s(I13
I16
tp285
I2
s(I26
I8
tp286
I2
s(I14
I-6
tp287
I2
s(I20
I-5
tp288
I2
s(I11
I-11
tp289
I2
s(I21
I-13
tp290
I2
s(I28
I6
tp291
I2
s(I33
I9
tp292
I2
s(I31
I11
tp293
I2
s(I29
I7
tp294
I2
s(I16
I4
tp295
I2
s(I32
I-7
tp296
I2
s(I30
I20
tp297
I2
s(I17
I1
tp298
I2
s(I27
I-9
tp299
I2
s(I20
I10
tp300
I2
s(I20
I-4
tp301
I2
s(I28
I3
tp302
I2
s(I21
I11
tp303
I2
s(I19
I-9
tp304
I2
s(I27
I13
tp305
I2
s(I22
I0
tp306
I2
s(I20
I-10
tp307
I2
s(I29
I-15
tp308
I2
s(I31
I-3
tp309
I2
s(I28
I-16
tp310
I2
s(I30
I-12
tp311
I2
s(I11
I3
tp312
I2
s(I14
I12
tp313
I2
s(I12
I4
tp314
I2
s(I28
I-18
tp315
I2
s(I15
I9
tp316
I2
s(I22
I3
tp317
I2
s(I25
I-11
tp318
I2
s(I12
I8
tp319
I2
s(I26
I19
tp320
I2
s(I14
I-3
tp321
I2
s(I24
I-12
tp322
I2
s(I33
I-15
tp323
I2
s(I29
I0
tp324
I2
s(I32
I-16
tp325
I2
s(I8
I-3
tp326
I2
s(I32
I-2
tp327
I2
s(I18
I1
tp328
I2
s(I13
I13
tp329
I2
s(I16
I17
tp330
I2
s(I19
I-4
tp331
I2
s(I26
I2
tp332
I2
s(I31
I-6
tp333
I2
s(I7
I-7
tp334
I2
s(I32
I10
tp335
I2
s(I25
I5
tp336
I2
s(I33
I6
tp337
I2
s(I33
I11
tp338
I2
s(I12
I3
tp339
I2
s(I31
I-9
tp340
I2
s(I13
I2
tp341
I2
s(I27
I-18
tp342
I2
s(I24
I6
tp343
I2
s(I27
I19
tp344
I2
s(I13
I-5
tp345
I2
s(I26
I4
tp346
I2
s(I14
I-18
tp347
I2
s(I20
I-7
tp348
I2
s(I11
I-7
tp349
I2
s(I32
I-9
tp350
I2
s(I30
I6
tp351
I2
s(I30
I-14
tp352
I2
s(I31
I7
tp353
I2
s(I16
I8
tp354
I2
s(I10
I-2
tp355
I1
s(I19
I5
tp356
I2
s(I20
I6
tp357
I2
s(I20
I2
tp358
I2
s(I10
I-5
tp359
I1
s(I17
I-5
tp360
I2
s(I34
I17
tp361
I2
s(I27
I11
tp362
I2
s(I32
I1
tp363
I2
s(I18
I14
tp364
I2
s(I9
I1
tp365
I0
s(I33
I12
tp366
I2
s(I21
I-2
tp367
I2
s(I10
I6
tp368
I0
s(I34
I11
tp369
I2
s(I14
I10
tp370
I2
s(I24
I13
tp371
I2
s(I16
I-9
tp372
I2
s(I30
I4
tp373
I2
s(I25
I-2
tp374
I2
s(I13
I-12
tp375
I2
s(I15
I5
tp376
I2
s(I9
I-8
tp377
I2
s(I28
I19
tp378
I2
s(I26
I15
tp379
I2
s(I14
I-15
tp380
I2
s(I29
I18
tp381
I2
s(I11
I-2
tp382
I2
s(I30
I9
tp383
I2
s(I28
I9
tp384
I2
s(I22
I4
tp385
I2
s(I31
I12
tp386
I2
s(I13
I-18
tp387
I2
s(I29
I12
tp388
I2
s(I33
I19
tp389
I2
s(I22
I-11
tp390
I2
s(I16
I15
tp391
I2
s(I15
I3
tp392
I2
s(I30
I19
tp393
I2
s(I31
I1
tp394
I2
s(I17
I14
tp395
I2
s(I15
I-2
tp396
I2
s(I18
I-9
tp397
I2
s(I20
I-9
tp398
I2
s(I25
I-13
tp399
I2
s(I23
I16
tp400
I2
s(I21
I0
tp401
I2
s(I19
I-16
tp402
I2
s(I22
I15
tp403
I2
s(I29
I-10
tp404
I2
s(I33
I5
tp405
I2
s(I23
I14
tp406
I2
s(I12
I-13
tp407
I2
s(I10
I1
tp408
I1
s(I30
I-13
tp409
I2
s(I21
I-6
tp410
I2
s(I27
I-4
tp411
I2
s(I16
I10
tp412
I2
s(I14
I11
tp413
I2
s(I26
I-11
tp414
I2
s(I31
I-11
tp415
I2
s(I25
I17
tp416
I2
s(I15
I2
tp417
I2
s(I24
I-18
tp418
I2
s(I25
I-14
tp419
I2
s(I14
I-8
tp420
I2
s(I24
I-17
tp421
I2
s(I11
I-9
tp422
I0
s(I11
I6
tp423
I0
s(I10
I-6
tp424
I1
s(I27
I4
tp425
I2
s(I28
I-8
tp426
I2
s(I33
I-2
tp427
I2
s(I9
I-7
tp428
I2
s(I12
I-1
tp429
I2
s(I22
I-12
tp430
I2
s(I32
I-5
tp431
I2
s(I8
I-8
tp432
I2
s(I21
I-5
tp433
I2
s(I31
I19
tp434
I2
s(I18
I-18
tp435
I2
s(I20
I-2
tp436
I2
s(I17
I-11
tp437
I2
s(I19
I-7
tp438
I2
s(I17
I-12
tp439
I2
s(I22
I-2
tp440
I2
s(I22
I6
tp441
I2
s(I26
I-5
tp442
I2
s(I28
I-6
tp443
I2
s(I23
I7
tp444
I2
s(I10
I8
tp445
I2
s(I27
I9
tp446
I2
s(I11
I5
tp447
I1
s(I14
I18
tp448
I2
s(I12
I6
tp449
I0
s(I15
I11
tp450
I2
s(I25
I-5
tp451
I2
s(I6
I5
tp452
I2
s(I26
I17
tp453
I2
s(I24
I1
tp454
I2
s(I24
I-10
tp455
I2
s(I1
I1
tp456
I0
s(I17
I-7
tp457
I2
s(I29
I6
tp458
I2
s(I25
I-8
tp459
I2
s(I33
I-9
tp460
I2
s(I32
I-14
tp461
I2
s(I7
I5
tp462
I2
s(I25
I12
tp463
I2
s(I31
I-2
tp464
I2
s(I16
I5
tp465
I2
s(I16
I19
tp466
I2
s(I31
I-1
tp467
I2
s(I19
I-2
tp468
I2
s(I21
I-18
tp469
I2
s(I30
I-3
tp470
I2
s(I6
I-2
tp471
I2
s(I27
I17
tp472
I2
s(I28
I-13
tp473
I2
s(I34
I14
tp474
I2
s(I17
I0
tp475
I2
s(I13
I0
tp476
I2
s(I13
I-3
tp477
I2
s(I24
I8
tp478
I2
s(I24
I-3
tp479
I2
s(I18
I4
tp480
I2
s(I13
I-7
tp481
I2
s(I15
I-11
tp482
I2
s(I12
I-8
tp483
I0
s(I11
I-5
tp484
I2
s(I11
I4
tp485
I2
s(I28
I12
tp486
I2
s(I23
I-7
tp487
I2
s(I18
I7
tp488
I2
s(I12
I-4
tp489
I2
s(I22
I-8
tp490
I2
s(I32
I-17
tp491
I2
s(I19
I7
tp492
I2
s(I21
I-9
tp493
I2
s(I20
I0
tp494
I2
s(I31
I-19
tp495
I2
s(I21
I5
tp496
I2
s(I21
I10
tp497
I2
s(I32
I3
tp498
I2
s(I22
I10
tp499
I2
s(I12
I7
tp500
I0
s(I18
I-4
tp501
I2
s(I33
I2
tp502
I2
s(I18
I-1
tp503
I2
s(I28
I-2
tp504
I2
s(I11
I9
tp505
I0
s(I24
I15
tp506
I2
s(I14
I6
tp507
I2
s(I13
I-14
tp508
I2
s(I15
I7
tp509
I2
s(I31
I8
tp510
I2
s(I12
I-9
tp511
I0
s(I14
I-9
tp512
I2
s(I29
I16
tp513
I2
s(I9
I2
tp514
I0
s(I27
I0
tp515
I2
s(I25
I-6
tp516
I2
s(I21
I7
tp517
I2
s(I30
I15
tp518
I2
s(I28
I11
tp519
I2
s(I31
I14
tp520
I2
s(I29
I10
tp521
I2
s(I16
I1
tp522
I2
s(I19
I12
tp523
I2
s(I21
I-16
tp524
I2
s(I25
I14
tp525
I2
s(I18
I-11
tp526
I2
s(I8
I4
tp527
I2
s(I18
I11
tp528
I2
s(I16
I3
tp529
I2
s(I23
I18
tp530
I2
s(I21
I14
tp531
I2
s(I31
I-4
tp532
I2
s(I19
I-14
tp533
I2
s(I30
I-17
tp534
I2
s(I22
I13
tp535
I2
s(I29
I-12
tp536
I2
s(I31
I-16
tp537
I2
s(I28
I-11
tp538
I2
s(I30
I-15
tp539
I2
s(I27
I-2
tp540
I2
s(I29
I-18
tp541
I2
s(I14
I9
tp542
I2
s(I12
I9
tp543
I0
s(I26
I13
tp544
I2
s(I15
I12
tp545
I2
s(I15
I-5
tp546
I2
s(I13
I12
tp547
I2
s(I22
I7
tp548
I2
s(I14
I-1
tp549
I2
s(I10
I-8
tp550
I1
s(I29
I3
tp551
I2
s(I20
I9
tp552
I2
s(I32
I-3
tp553
I2
s(I8
I-6
tp554
I2
s(I17
I5
tp555
I2
s(I18
I9
tp556
I2
s(I18
I2
tp557
I2
s(I28
I7
tp558
I2
s(I19
I-5
tp559
I2
s(I16
I-10
tp560
I2
s(I31
I-7
tp561
I2
s(I7
I-4
tp562
I2
s(I30
I-8
tp563
I2
s(I11
I7
tp564
I0
s(I18
I-2
tp565
I2
s(I12
I0
tp566
I2
s(I25
I-7
tp567
I2
s(I24
I3
tp568
I2
s(I24
I-8
tp569
I2
s(I13
I-1
tp570
I2
s(I23
I-10
tp571
I2
s(I14
I0
tp572
I2
s(I33
I-11
tp573
I2
s(I20
I-8
tp574
I2
s(I25
I-12
tp575
I2
s(I6
I6
tp576
I2
s(I30
I3
tp577
I2
s(I9
I-10
tp578
I2
s(I7
I7
tp579
I2
s(I33
I-17
tp580
I2
s(I19
I0
tp581
I2
s(I21
I-1
tp582
I2
s(I22
I-13
tp583
I2
s(I24
I0
tp584
I2
s(I6
I-3
tp585
I2
s(I8
I1
tp586
I2
s(I32
I14
tp587
I2
s(I33
I15
tp588
I2
s(I25
I-1
tp589
I2
s(I34
I12
tp590
I2
s(I15
I18
tp591
I2
s(I27
I-11
tp592
I2
s(I24
I10
tp593
I2
s(I26
I-17
tp594
I2
s(I13
I-9
tp595
I2
s(I17
I12
tp596
I2
s(I12
I-6
tp597
I2
s(I14
I-14
tp598
I2
s(I11
I-3
tp599
I0
s(I30
I10
tp600
I2
s(I28
I14
tp601
I2
s(I31
I3
tp602
I2
s(I29
I15
tp603
I2
s(I20
I15
tp604
I2
s(I22
I-1
tp605
I2
s(I27
I-16
tp606
I2
s(I19
I9
tp607
I2
s(I11
I-1
tp608
I2
s(I18
I-8
tp609
I2
s(I20
I-12
tp610
I2
s(I31
I-17
tp611
I2
s(I21
I3
tp612
I2
s(I19
I-17
tp613
I2
s(I8
I8
tp614
I2
s(I32
I5
tp615
I2
s(I22
I8
tp616
I2
s(I29
I-7
tp617
I2
s(I33
I0
tp618
I2
s(I23
I13
tp619
I2
s(I10
I2
tp620
I2
s(I13
I-2
tp621
I2
s(I27
I-5
tp622
I2
s(I24
I17
tp623
I2
s(I14
I4
tp624
I2
s(I26
I-10
tp625
I2
s(I13
I-16
tp626
I2
s(I15
I1
tp627
I2
s(I15
I-4
tp628
I2
s(I13
I17
tp629
I2
s(I26
I11
tp630
I2
s(I14
I-11
tp631
I2
s(I26
I-1
tp632
I2
s(I27
I2
tp633
I2
s(I30
I13
tp634
I2
s(I28
I5
tp635
I2
s(I23
I-12
tp636
I2
s(I13
I1
tp637
I2
s(I23
I-16
tp638
I2
s(I29
I8
tp639
I2
s(I8
I-2
tp640
I2
s(I13
I10
tp641
I2
s(I22
I-15
tp642
I2
s(I32
I-8
tp643
I2
s(I19
I14
tp644
I2
s(I17
I2
tp645
I2
s(I23
I-18
tp646
I2
s(I18
I-13
tp647
I2
s(I20
I-13
tp648
I2
s(I21
I12
tp649
I2
s(I19
I-12
tp650
I2
s(I30
I-19
tp651
I2
s(I17
I11
tp652
I2
s(I16
I-15
tp653
I2
s(I13
I-10
tp654
I2
s(I21
I2
tp655
I2
s(I29
I-14
tp656
I2
s(I22
I-3
tp657
I2
s(I23
I10
tp658
I2
s(I23
I8
tp659
I2
s(I28
I-9
tp660
I2
s(I30
I-9
tp661
I2
s(I33
I-13
tp662
I2
s(I11
I0
tp663
I2
s(I29
I-20
tp664
I2
s(I26
I-15
tp665
I2
s(I15
I14
tp666
I2
s(I25
I-10
tp667
I2
s(I26
I18
tp668
I2
s(I0
I1
tp669
I0
s(I14
I-4
tp670
I2
s(I12
I-5
tp671
I1
s(I21
I-14
tp672
I2
s(I25
I-4
tp673
I2
s(I33
I-14
tp674
I2
s(I9
I-3
tp675
I0
s(I8
I-4
tp676
I2
s(I7
I8
tp677
I2
s(I18
I-7
tp678
I2
s(I20
I16
tp679
I2
s(I20
I13
tp680
I2
s(I27
I-1
tp681
I2
s(I19
I-3
tp682
I2
s(I11
I-4
tp683
I0
s(I32
I19
tp684
I2
s(I18
I13
tp685
I2
s(I31
I-5
tp686
I2
s(I7
I-2
tp687
I2
s(I17
I19
tp688
I2
s(I30
I-1
tp689
I2
s(I21
I-8
tp690
I2
s(I26
I-8
tp691
I2
s(I-1
I1
tp692
I0
s(I17
I-4
tp693
I2
s(I29
I1
tp694
I2
s(I26
I-13
tp695
I2
s(I9
I-2
tp696
I2
s(I10
I-11
tp697
I2
s(I27
I16
tp698
I2
s(I13
I-4
tp699
I2
s(I-1
I-1
tp700
I0
s(I12
I-3
tp701
I2
s(I6
I4
tp702
I2
s(I30
I1
tp703
I2
s(I23
I-6
tp704
I2
s(I24
I-1
tp705
I2
s(I23
I-4
tp706
I2
s(I16
I-3
tp707
I2
s(I19
I2
tp708
I2
s(I16
I-17
tp709
I2
s(I20
I5
tp710
I2
s(I20
I-17
tp711
I2
s(I34
I16
tp712
I2
s(I32
I0
tp713
I2
s(I23
I-5
tp714
I2
s(I13
I-8
tp715
I2
s(I29
I-1
tp716
I2
s(I33
I13
tp717
I2
s(I14
I-2
tp718
I2
s(I31
I-10
tp719
I2
s(I34
I10
tp720
I2
s(I24
I12
tp721
I2
s(I21
I13
tp722
I2
s(I0
I-1
tp723
I0
s(I13
I-11
tp724
I2
s(I28
I18
tp725
I2
s(I26
I14
tp726
I2
s(I14
I-16
tp727
I2
s(I18
I0
tp728
I2
s(I27
I15
tp729
I2
s(I17
I8
tp730
I2
s(I29
I19
tp731
I2
s(I31
I13
tp732
I2
s(I29
I13
tp733
I2
s(I12
I-2
tp734
I2
s(I22
I-4
tp735
I2
s(I30
I18
tp736
I2
s(I19
I11
tp737
I2
s(I29
I-5
tp738
I2
s(I18
I-10
tp739
I2
s(I18
I12
tp740
I2
s(I23
I17
tp741
I2
s(I21
I1
tp742
I2
s(I19
I-15
tp743
I2
s(I32
I7
tp744
I2
s(I22
I14
tp745
I2
s(I29
I-9
tp746
I2
s(I20
I-6
tp747
I2
s(I23
I15
tp748
I2
s(I10
I0
tp749
I1
s(I24
I20
tp750
I2
s(I21
I-11
tp751
I2
s(I27
I-3
tp752
I2
s(I24
I19
tp753
I2
s(I17
I-16
tp754
I2
s(I26
I-12
tp755
I2
s(I25
I-3
tp756
I2
s(I25
I18
tp757
I2
s(I17
I-1
tp758
I2
s(I15
I-1
tp759
I2
s(I13
I15
tp760
I2
s(I26
I9
tp761
I2
s(I14
I-5
tp762
I2
s(I10
I-9
tp763
I2
s(I11
I-12
tp764
I2
s(I22
I12
tp765
I2
s(I20
I12
tp766
I2
s(I10
I-3
tp767
I0
s(I23
I-14
tp768
I2
s(I9
I-6
tp769
I2
s(I32
I-15
tp770
I2
s(I22
I-9
tp771
I2
s(I32
I-6
tp772
I2
s(I23
I3
tp773
I2
s(I23
I-8
tp774
I2
s(I21
I-4
tp775
I2
s(I16
I14
tp776
I2
s(I22
I9
tp777
I2
s(I20
I11
tp778
I2
s(I20
I-3
tp779
I2
s(I13
I14
tp780
I2
s(I17
I-10
tp781
I2
s(I18
I10
tp782
I2
s(I19
I-10
tp783
I2
s(I22
I1
tp784
I2
s(I29
I-16
tp785
I2
s(I17
I-3
tp786
I2
s(I23
I4
tp787
I2
s(I26
I0
tp788
I2
s(I28
I-15
tp789
I2
s(I30
I-11
tp790
I2
s(I21
I-7
tp791
I2
s(I25
I6
tp792
I2
s(I11
I2
tp793
I2
s(I30
I-2
tp794
I2
s(I16
I11
tp795
I2
s(I14
I13
tp796
I2
s(I12
I5
tp797
I2
s(I32
I9
tp798
I2
s(I10
I4
tp799
I2
s(I15
I8
tp800
I2
s(I13
I8
tp801
I2
s(I9
I-1
tp802
I2
s(I24
I-11
tp803
I2
s(I28
I-17
tp804
I2
s(I27
I7
tp805
I2
s(I10
I3
tp806
I2
s(I33
I-16
tp807
I2
s(I32
I12
tp808
I2
s(I6
I3
tp809
I2
s(I21
I-10
tp810
I2
s(I20
I-15
tp811
I2
s(I16
I18
tp812
I2
s(I8
I-1
tp813
I2
s(I21
I-17
tp814
I2
s(I31
I10
tp815
I2
s(I12
I2
tp816
I2
s(I24
I5
tp817
I2
s(I18
I-5
tp818
I2
s(I33
I16
tp819
I2
s(I28
I0
tp820
I2
s(I30
I-4
tp821
I2
s(I32
I11
tp822
I2
s(I33
I10
tp823
I2
s(I17
I9
tp824
I2
s(I15
I17
tp825
I2
s(I23
I20
tp826
I2
s(I24
I7
tp827
I2
s(I24
I-4
tp828
I2
s(I33
I-1
tp829
I2
s(I27
I18
tp830
I2
s(I13
I3
tp831
I2
s(I13
I-6
tp832
I2
s(I21
I4
tp833
I2
s(I29
I5
tp834
I2
s(I26
I5
tp835
I2
s(I18
I-15
tp836
I2
s(I14
I-17
tp837
I2
s(I27
I-17
tp838
I2
s(I11
I-8
tp839
I1
s(I30
I7
tp840
I2
ssS'myx'
p841
I0
sS'wall'
p842
I2
sS'unknown'
p843
I0
sS'edge'
p844
(dp845
(I0
I0
tp846
I0
s(I12
I-5
tp847
I0
s(I11
I5
tp848
I0
s(I11
I8
tp849
I0
s(I10
I-2
tp850
I0
s(I10
I-5
tp851
I0
s(I10
I1
tp852
I0
s(I11
I-8
tp853
I0
ssS'known'
p854
I1
sS'y0'
p855
I0
sS'x0'
p856
I0
sS'toward'
p857
(F0.0
F1.0
tp858
sS'size'
p859
I5
sb.