(dp0
(I31
I6
tp1
(lp2
I10
aI165
as(I25
I19
tp3
(lp4
I0
aI108
as(I22
I-12
tp5
(lp6
I0
aI280
as(I16
I9
tp7
(lp8
I0
aI409
as(I32
I-18
tp9
(lp10
I41
aI212
as(I31
I-7
tp11
(lp12
I0
aI287
as(I19
I4
tp13
(lp14
I0
aI53
as(I23
I-1
tp15
(lp16
I0
aI11
as(I22
I19
tp17
(lp18
I0
aI3
as(I16
I-7
tp19
(lp20
I0
aI28
as(I20
I7
tp21
(lp22
I0
aI604
as(I18
I19
tp23
(lp24
I0
aI24
as(I21
I-12
tp25
(lp26
I0
aI301
as(I20
I6
tp27
(lp28
I0
aI328
as(I21
I6
tp29
(lp30
I0
aI305
as(I8
I5
tp31
(lp32
I0
aI412
as(I32
I2
tp33
(lp34
I10
aI628
as(I29
I-4
tp35
(lp36
I0
aI18
as(I33
I3
tp37
(lp38
I214
aI1282
as(I28
I-3
tp39
(lp40
I0
aI18
as(I21
I-5
tp41
(lp42
I4
aI93
as(I13
I-4
tp43
(lp44
I0
aI340
as(I22
I-5
tp45
(lp46
I0
aI141
as(I14
I1
tp47
(lp48
I7
aI1112
as(I25
I15
tp49
(lp50
I6
aI121
as(I15
I4
tp51
(lp52
I0
aI1328
as(I26
I12
tp53
(lp54
I0
aI394
as(I14
I-10
tp55
(lp56
I0
aI180
as(I29
I17
tp57
(lp58
I0
aI17
as(I27
I1
tp59
(lp60
I0
aI462
as(I30
I14
tp61
(lp62
I0
aI363
as(I28
I10
tp63
(lp64
I0
aI11
as(I11
I-11
tp65
(lp66
I0
aI29
as(I31
I15
tp67
(lp68
I0
aI254
as(I9
I-9
tp69
(lp70
I0
aI51
as(I12
I-3
tp71
(lp72
I0
aI697
as(I12
I4
tp73
(lp74
I0
aI763
as(I16
I0
tp75
(lp76
I0
aI96
as(I19
I13
tp77
(lp78
I0
aI469
as(I17
I13
tp79
(lp80
I0
aI531
as(I18
I-12
tp81
(lp82
I0
aI257
as(I20
I-16
tp83
(lp84
I0
aI286
as(I31
I-21
tp85
(lp86
I0
aI1097
as(I18
I-3
tp87
(lp88
I0
aI135
as(I17
I-13
tp89
(lp90
I0
aI9
as(I19
I-13
tp91
(lp92
I0
aI230
as(I30
I-18
tp93
(lp94
I0
aI308
as(I16
I-2
tp95
(lp96
I3
aI236
as(I12
I0
tp97
(lp98
I137
aI1547
as(I20
I-2
tp99
(lp100
I0
aI346
as(I29
I-11
tp101
(lp102
I0
aI355
as(I33
I4
tp103
(lp104
I116
aI1548
as(I23
I9
tp105
(lp106
I0
aI322
as(I11
I8
tp107
(lp108
I52
aI3
as(I28
I-12
tp109
(lp110
I4
aI349
as(I30
I-16
tp111
(lp112
I5
aI374
as(I29
I-17
tp113
(lp114
I1
aI136
as(I14
I8
tp115
(lp116
I0
aI1125
as(I26
I-14
tp117
(lp118
I2
aI44
as(I25
I16
tp119
(lp120
I0
aI10
as(I15
I13
tp121
(lp122
I0
aI432
as(I15
I-8
tp123
(lp124
I0
aI12
as(I25
I-15
tp125
(lp126
I0
aI22
as(I23
I-13
tp127
(lp128
I0
aI142
as(I14
I-7
tp129
(lp130
I0
aI820
as(I27
I6
tp131
(lp132
I0
aI42
as(I25
I-7
tp133
(lp134
I0
aI188
as(I17
I-6
tp135
(lp136
I0
aI4
as(I9
I-5
tp137
(lp138
I0
aI5
as(I28
I1
tp139
(lp140
I0
aI478
as(I29
I4
tp141
(lp142
I0
aI206
as(I16
I7
tp143
(lp144
I0
aI708
as(I32
I-4
tp145
(lp146
I0
aI278
as(I8
I-7
tp147
(lp148
I0
aI262
as(I17
I6
tp149
(lp150
I0
aI518
as(I31
I18
tp151
(lp152
I0
aI11
as(I13
I-15
tp153
(lp154
I0
aI77
as(I18
I-17
tp155
(lp156
I0
aI216
as(I18
I5
tp157
(lp158
I0
aI210
as(I22
I-10
tp159
(lp160
I0
aI342
as(I22
I-17
tp161
(lp162
I0
aI218
as(I21
I8
tp163
(lp164
I0
aI366
as(I19
I-8
tp165
(lp166
I0
aI131
as(I23
I-4
tp167
(lp168
I0
aI40
as(I32
I16
tp169
(lp170
I0
aI47
as(I16
I-11
tp171
(lp172
I0
aI29
as(I23
I6
tp173
(lp174
I0
aI357
as(I7
I-3
tp175
(lp176
I0
aI1299
as(I28
I-13
tp177
(lp178
I0
aI602
as(I30
I-5
tp179
(lp180
I0
aI122
as(I27
I-12
tp181
(lp182
I0
aI262
as(I10
I8
tp183
(lp184
I86
aI51
as(I14
I19
tp185
(lp186
I0
aI83
as(I26
I-3
tp187
(lp188
I0
aI35
as(I22
I15
tp189
(lp190
I0
aI140
as(I9
I0
tp191
(lp192
I0
aI16
as(I15
I10
tp193
(lp194
I2
aI386
as(I17
I1
tp195
(lp196
I0
aI34
as(I13
I6
tp197
(lp198
I0
aI259
as(I13
I-1
tp199
(lp200
I17
aI1154
as(I24
I2
tp201
(lp202
I0
aI17
as(I24
I-9
tp203
(lp204
I0
aI413
as(I17
I-2
tp205
(lp206
I3
aI139
as(I25
I3
tp207
(lp208
I0
aI60
as(I33
I-10
tp209
(lp210
I0
aI37
as(I20
I10
tp211
(lp212
I0
aI59
as(I32
I-13
tp213
(lp214
I242
aI1811
as(I30
I2
tp215
(lp216
I0
aI377
as(I11
I-13
tp217
(lp218
I0
aI18
as(I20
I-4
tp219
(lp220
I0
aI267
as(I28
I15
tp221
(lp222
I0
aI213
as(I19
I1
tp223
(lp224
I0
aI45
as(I26
I-16
tp225
(lp226
I0
aI2
as(I33
I-11
tp227
(lp228
I0
aI112
as(I8
I0
tp229
(lp230
I0
aI294
as(I32
I13
tp231
(lp232
I0
aI367
as(I33
I8
tp233
(lp234
I101
aI2174
as(I10
I-1
tp235
(lp236
I256
aI325
as(I34
I15
tp237
(lp238
I0
aI1455
as(I15
I19
tp239
(lp240
I0
aI20
as(I24
I9
tp241
(lp242
I0
aI158
as(I24
I-2
tp243
(lp244
I0
aI105
as(I26
I-18
tp245
(lp246
I0
aI46
as(I25
I4
tp247
(lp248
I0
aI65
as(I24
I14
tp249
(lp250
I0
aI222
as(I15
I-12
tp251
(lp252
I0
aI217
as(I31
I9
tp253
(lp254
I75
aI198
as(I12
I-7
tp255
(lp256
I3
aI52
as(I11
I-6
tp257
(lp258
I516
aI351
as(I25
I-5
tp259
(lp260
I0
aI124
as(I30
I5
tp261
(lp262
I0
aI249
as(I28
I13
tp263
(lp264
I0
aI461
as(I31
I0
tp265
(lp266
I1
aI1050
as(I17
I10
tp267
(lp268
I0
aI93
as(I22
I-7
tp269
(lp270
I0
aI113
as(I6
I6
tp271
(lp272
I0
aI182
as(I19
I6
tp273
(lp274
I0
aI701
as(I21
I-10
tp275
(lp276
I0
aI120
as(I22
I17
tp277
(lp278
I0
aI12
as(I13
I-13
tp279
(lp280
I0
aI156
as(I20
I1
tp281
(lp282
I0
aI208
as(I22
I-16
tp283
(lp284
I0
aI124
as(I31
I-20
tp285
(lp286
I0
aI2271
as(I17
I-8
tp287
(lp288
I0
aI61
as(I31
I-3
tp289
(lp290
I0
aI98
as(I8
I7
tp291
(lp292
I0
aI93
as(I32
I4
tp293
(lp294
I23
aI368
as(I22
I11
tp295
(lp296
I0
aI233
as(I29
I-6
tp297
(lp298
I0
aI27
as(I33
I1
tp299
(lp300
I167
aI1036
as(I10
I5
tp301
(lp302
I180
aI34
as(I27
I-8
tp303
(lp304
I0
aI99
as(I6
I-2
tp305
(lp306
I0
aI91
as(I14
I7
tp307
(lp308
I0
aI576
as(I29
I-1
tp309
(lp310
I0
aI276
as(I15
I6
tp311
(lp312
I0
aI1460
as(I15
I-3
tp313
(lp314
I0
aI355
as(I13
I18
tp315
(lp316
I0
aI1
as(I26
I10
tp317
(lp318
I0
aI4
as(I14
I-12
tp319
(lp320
I0
aI318
as(I27
I3
tp321
(lp322
I0
aI295
as(I30
I12
tp323
(lp324
I0
aI414
as(I28
I4
tp325
(lp326
I0
aI125
as(I23
I-14
tp327
(lp328
I0
aI20
as(I23
I-15
tp329
(lp330
I0
aI6
as(I33
I-6
tp331
(lp332
I0
aI28
as(I29
I9
tp333
(lp334
I14
aI111
as(I18
I-14
tp335
(lp336
I0
aI192
as(I16
I2
tp337
(lp338
I0
aI88
as(I11
I3
tp339
(lp340
I266
aI206
as(I19
I15
tp341
(lp342
I0
aI36
as(I24
I16
tp343
(lp344
I0
aI3
as(I17
I3
tp345
(lp346
I0
aI318
as(I23
I-17
tp347
(lp348
I0
aI227
as(I20
I8
tp349
(lp350
I0
aI395
as(I11
I-12
tp351
(lp352
I0
aI81
as(I18
I8
tp353
(lp354
I0
aI115
as(I17
I-15
tp355
(lp356
I0
aI71
as(I19
I-11
tp357
(lp358
I0
aI131
as(I30
I-20
tp359
(lp360
I0
aI227
as(I22
I2
tp361
(lp362
I0
aI223
as(I29
I-13
tp363
(lp364
I8
aI536
as(I23
I11
tp365
(lp366
I0
aI41
as(I28
I-10
tp367
(lp368
I0
aI103
as(I30
I-10
tp369
(lp370
I0
aI437
as(I27
I-15
tp371
(lp372
I4
aI166
as(I14
I14
tp373
(lp374
I0
aI386
as(I12
I10
tp375
(lp376
I0
aI11
as(I15
I15
tp377
(lp378
I0
aI10
as(I15
I-6
tp379
(lp380
I0
aI50
as(I13
I11
tp381
(lp382
I0
aI146
as(I28
I-2
tp383
(lp384
I0
aI70
as(I24
I-14
tp385
(lp386
I0
aI2
as(I15
I9
tp387
(lp388
I0
aI443
as(I28
I3
tp389
(lp390
I0
aI410
as(I23
I-9
tp391
(lp392
I0
aI142
as(I16
I-16
tp393
(lp394
I0
aI80
as(I29
I2
tp395
(lp396
I0
aI355
as(I13
I9
tp397
(lp398
I0
aI329
as(I32
I-2
tp399
(lp400
I0
aI1016
as(I8
I-5
tp401
(lp402
I0
aI576
as(I29
I11
tp403
(lp404
I0
aI79
as(I17
I4
tp405
(lp406
I0
aI389
as(I7
I9
tp407
(lp408
I0
aI1
as(I18
I3
tp409
(lp410
I0
aI329
as(I19
I-6
tp411
(lp412
I0
aI43
as(I32
I18
tp413
(lp414
I0
aI29
as(I16
I-9
tp415
(lp416
I0
aI19
as(I22
I-14
tp417
(lp418
I0
aI209
as(I31
I-8
tp419
(lp420
I0
aI890
as(I31
I-13
tp421
(lp422
I13
aI538
as(I30
I-7
tp423
(lp424
I0
aI644
as(I32
I8
tp425
(lp426
I3
aI371
as(I27
I-10
tp427
(lp428
I0
aI113
as(I14
I17
tp429
(lp430
I0
aI55
as(I12
I1
tp431
(lp432
I2
aI952
as(I23
I14
tp433
(lp434
I0
aI194
as(I13
I4
tp435
(lp436
I0
aI127
as(I23
I20
tp437
(lp438
I0
aI19
as(I24
I4
tp439
(lp440
I0
aI208
as(I24
I-7
tp441
(lp442
I40
aI95
as(I26
I14
tp443
(lp444
I0
aI256
as(I25
I1
tp445
(lp446
I0
aI268
as(I21
I-15
tp447
(lp448
I0
aI41
as(I26
I6
tp449
(lp450
I0
aI39
as(I33
I-12
tp451
(lp452
I0
aI36
as(I32
I-11
tp453
(lp454
I346
aI1600
as(I30
I0
tp455
(lp456
I0
aI478
as(I7
I6
tp457
(lp458
I0
aI78
as(I31
I5
tp459
(lp460
I2
aI229
as(I33
I-18
tp461
(lp462
I0
aI9
as(I20
I14
tp463
(lp464
I0
aI355
as(I11
I1
tp465
(lp466
I125
aI370
as(I19
I-2
tp467
(lp468
I0
aI259
as(I27
I15
tp469
(lp470
I0
aI145
as(I22
I5
tp471
(lp472
I0
aI222
as(I20
I4
tp473
(lp474
I0
aI320
as(I20
I-18
tp475
(lp476
I0
aI119
as(I33
I20
tp477
(lp478
I0
aI1
as(I21
I-16
tp479
(lp480
I0
aI169
as(I32
I15
tp481
(lp482
I0
aI197
as(I23
I19
tp483
(lp484
I0
aI135
as(I33
I14
tp485
(lp486
I0
aI308
as(I34
I13
tp487
(lp488
I0
aI1437
as(I21
I15
tp489
(lp490
I0
aI222
as(I9
I-4
tp491
(lp492
I0
aI17
as(I11
I-2
tp493
(lp494
I192
aI112
as(I24
I11
tp495
(lp496
I0
aI249
as(I14
I2
tp497
(lp498
I14
aI1150
as(I25
I10
tp499
(lp500
I0
aI32
as(I15
I-10
tp501
(lp502
I0
aI260
as(I28
I17
tp503
(lp504
I0
aI28
as(I26
I1
tp505
(lp506
I0
aI214
as(I14
I-13
tp507
(lp508
I0
aI240
as(I29
I20
tp509
(lp510
I0
aI1
as(I27
I12
tp511
(lp512
I0
aI473
as(I30
I11
tp513
(lp514
I3
aI211
as(I10
I-11
tp515
(lp516
I0
aI32
as(I31
I13
tp517
(lp518
I0
aI393
as(I31
I2
tp519
(lp520
I0
aI547
as(I16
I-1
tp521
(lp522
I0
aI220
as(I29
I14
tp523
(lp524
I0
aI392
as(I25
I-9
tp525
(lp526
I0
aI58
as(I16
I13
tp527
(lp528
I0
aI408
as(I19
I8
tp529
(lp530
I0
aI92
as(I17
I8
tp531
(lp532
I0
aI856
as(I11
I4
tp533
(lp534
I93
aI90
as(I20
I3
tp535
(lp536
I0
aI192
as(I20
I-11
tp537
(lp538
I0
aI388
as(I31
I-18
tp539
(lp540
I0
aI2755
as(I21
I2
tp541
(lp542
I0
aI194
as(I19
I-18
tp543
(lp544
I0
aI39
as(I8
I9
tp545
(lp546
I0
aI2
as(I32
I6
tp547
(lp548
I11
aI372
as(I16
I-5
tp549
(lp550
I0
aI103
as(I13
I-9
tp551
(lp552
I0
aI181
as(I29
I-8
tp553
(lp554
I0
aI174
as(I33
I7
tp555
(lp556
I65
aI1930
as(I31
I-12
tp557
(lp558
I2
aI610
as(I31
I-15
tp559
(lp560
I50
aI518
as(I28
I-7
tp561
(lp562
I0
aI53
as(I27
I-6
tp563
(lp564
I0
aI13
as(I24
I18
tp565
(lp566
I0
aI152
as(I14
I5
tp567
(lp568
I0
aI2086
as(I17
I-1
tp569
(lp570
I0
aI159
as(I26
I-9
tp571
(lp572
I0
aI174
as(I13
I-17
tp573
(lp574
I0
aI87
as(I15
I0
tp575
(lp576
I0
aI191
as(I13
I16
tp577
(lp578
I0
aI39
as(I26
I8
tp579
(lp580
I0
aI18
as(I14
I-6
tp581
(lp582
I0
aI761
as(I20
I-5
tp583
(lp584
I0
aI93
as(I27
I5
tp585
(lp586
I0
aI124
as(I28
I6
tp587
(lp588
I4
aI55
as(I31
I11
tp589
(lp590
I45
aI151
as(I29
I7
tp591
(lp592
I53
aI158
as(I16
I4
tp593
(lp594
I1
aI487
as(I32
I-7
tp595
(lp596
I0
aI1387
as(I30
I20
tp597
(lp598
I0
aI28
as(I21
I-3
tp599
(lp600
I0
aI410
as(I18
I-16
tp601
(lp602
I0
aI213
as(I18
I6
tp603
(lp604
I0
aI397
as(I10
I-7
tp605
(lp606
I524
aI37
as(I24
I8
tp607
(lp608
I0
aI266
as(I21
I11
tp609
(lp610
I0
aI241
as(I19
I-9
tp611
(lp612
I0
aI397
as(I11
I-3
tp613
(lp614
I2
aI0
as(I22
I0
tp615
(lp616
I0
aI91
as(I18
I12
tp617
(lp618
I0
aI471
as(I29
I-15
tp619
(lp620
I24
aI374
as(I23
I5
tp621
(lp622
I0
aI128
as(I17
I-11
tp623
(lp624
I0
aI43
as(I28
I-16
tp625
(lp626
I16
aI229
as(I30
I-12
tp627
(lp628
I0
aI701
as(I23
I17
tp629
(lp630
I0
aI109
as(I27
I-13
tp631
(lp632
I0
aI453
as(I14
I12
tp633
(lp634
I0
aI408
as(I26
I-2
tp635
(lp636
I0
aI201
as(I28
I-18
tp637
(lp638
I0
aI51
as(I21
I1
tp639
(lp640
I0
aI442
as(I25
I-11
tp641
(lp642
I0
aI245
as(I12
I8
tp643
(lp644
I0
aI199
as(I26
I19
tp645
(lp646
I0
aI156
as(I14
I-3
tp647
(lp648
I0
aI6187
as(I24
I-12
tp649
(lp650
I0
aI18
as(I9
I-7
tp651
(lp652
I0
aI23
as(I33
I-15
tp653
(lp654
I0
aI35
as(I29
I0
tp655
(lp656
I0
aI255
as(I32
I-16
tp657
(lp658
I161
aI1073
as(I8
I-3
tp659
(lp660
I0
aI958
as(I11
I-8
tp661
(lp662
I22
aI0
as(I32
I-1
tp663
(lp664
I0
aI573
as(I18
I1
tp665
(lp666
I0
aI200
as(I13
I13
tp667
(lp668
I0
aI115
as(I16
I17
tp669
(lp670
I0
aI12
as(I19
I-4
tp671
(lp672
I0
aI51
as(I32
I20
tp673
(lp674
I0
aI4
as(I31
I-6
tp675
(lp676
I0
aI159
as(I7
I-7
tp677
(lp678
I0
aI26
as(I9
I11
tp679
(lp680
I0
aI2
as(I32
I10
tp681
(lp682
I98
aI215
as(I13
I-7
tp683
(lp684
I0
aI702
as(I33
I11
tp685
(lp686
I40
aI1426
as(I12
I3
tp687
(lp688
I0
aI609
as(I23
I15
tp689
(lp690
I0
aI137
as(I13
I2
tp691
(lp692
I3
aI994
as(I27
I-18
tp693
(lp694
I0
aI127
as(I24
I6
tp695
(lp696
I0
aI91
as(I24
I-5
tp697
(lp698
I0
aI6
as(I27
I19
tp699
(lp700
I0
aI148
as(I25
I7
tp701
(lp702
I0
aI9
as(I26
I4
tp703
(lp704
I0
aI182
as(I14
I-18
tp705
(lp706
I0
aI119
as(I20
I-7
tp707
(lp708
I0
aI188
as(I27
I9
tp709
(lp710
I0
aI17
as(I32
I-9
tp711
(lp712
I0
aI2376
as(I30
I6
tp713
(lp714
I8
aI184
as(I31
I7
tp715
(lp716
I16
aI331
as(I20
I-12
tp717
(lp718
I0
aI386
as(I16
I8
tp719
(lp720
I0
aI727
as(I10
I-2
tp721
(lp722
I487
aI5
as(I19
I5
tp723
(lp724
I0
aI27
as(I22
I18
tp725
(lp726
I0
aI2
as(I18
I-4
tp727
(lp728
I0
aI102
as(I18
I-8
tp729
(lp730
I0
aI81
as(I10
I-5
tp731
(lp732
I57
aI0
as(I17
I-5
tp733
(lp734
I0
aI82
as(I34
I17
tp735
(lp736
I0
aI703
as(I11
I-5
tp737
(lp738
I192
aI100
as(I32
I1
tp739
(lp740
I58
aI411
as(I6
I-3
tp741
(lp742
I0
aI106
as(I29
I-3
tp743
(lp744
I0
aI2
as(I33
I12
tp745
(lp746
I5
aI1487
as(I28
I-4
tp747
(lp748
I0
aI2
as(I34
I11
tp749
(lp750
I57
aI562
as(I21
I13
tp751
(lp752
I0
aI364
as(I24
I13
tp753
(lp754
I2
aI163
as(I14
I0
tp755
(lp756
I18
aI972
as(I25
I-2
tp757
(lp758
I0
aI217
as(I13
I-12
tp759
(lp760
I0
aI165
as(I15
I5
tp761
(lp762
I0
aI1340
as(I9
I-8
tp763
(lp764
I0
aI81
as(I28
I19
tp765
(lp766
I0
aI185
as(I26
I15
tp767
(lp768
I8
aI148
as(I14
I-15
tp769
(lp770
I0
aI112
as(I10
I-10
tp771
(lp772
I0
aI10
as(I29
I18
tp773
(lp774
I0
aI90
as(I27
I14
tp775
(lp776
I0
aI280
as(I21
I-18
tp777
(lp778
I0
aI19
as(I30
I9
tp779
(lp780
I22
aI310
as(I28
I9
tp781
(lp782
I0
aI18
as(I31
I12
tp783
(lp784
I0
aI181
as(I25
I18
tp785
(lp786
I0
aI60
as(I29
I12
tp787
(lp788
I0
aI287
as(I33
I19
tp789
(lp790
I0
aI87
as(I22
I-11
tp791
(lp792
I0
aI324
as(I16
I15
tp793
(lp794
I0
aI21
as(I30
I19
tp795
(lp796
I0
aI313
as(I23
I0
tp797
(lp798
I0
aI4
as(I19
I10
tp799
(lp800
I0
aI6
as(I23
I-7
tp801
(lp802
I3
aI239
as(I17
I14
tp803
(lp804
I0
aI396
as(I15
I-1
tp805
(lp806
I0
aI210
as(I18
I-9
tp807
(lp808
I0
aI137
as(I20
I-9
tp809
(lp810
I0
aI423
as(I13
I15
tp811
(lp812
I0
aI43
as(I23
I16
tp813
(lp814
I0
aI15
as(I21
I0
tp815
(lp816
I0
aI319
as(I19
I-16
tp817
(lp818
I0
aI187
as(I16
I-3
tp819
(lp820
I0
aI400
as(I29
I-10
tp821
(lp822
I0
aI140
as(I33
I5
tp823
(lp824
I132
aI1819
as(I31
I-10
tp825
(lp826
I1
aI507
as(I20
I-1
tp827
(lp828
I0
aI277
as(I26
I9
tp829
(lp830
I0
aI13
as(I10
I1
tp831
(lp832
I416
aI0
as(I30
I-13
tp833
(lp834
I33
aI900
as(I21
I-6
tp835
(lp836
I0
aI43
as(I13
I-5
tp837
(lp838
I0
aI268
as(I27
I-4
tp839
(lp840
I0
aI22
as(I22
I-8
tp841
(lp842
I0
aI209
as(I14
I11
tp843
(lp844
I0
aI399
as(I26
I-11
tp845
(lp846
I0
aI325
as(I23
I13
tp847
(lp848
I0
aI153
as(I25
I17
tp849
(lp850
I0
aI23
as(I15
I2
tp851
(lp852
I0
aI226
as(I24
I-18
tp853
(lp854
I0
aI106
as(I25
I-14
tp855
(lp856
I0
aI42
as(I14
I-8
tp857
(lp858
I0
aI1084
as(I24
I-17
tp859
(lp860
I0
aI60
as(I27
I7
tp861
(lp862
I0
aI68
as(I28
I0
tp863
(lp864
I0
aI485
as(I11
I5
tp865
(lp866
I18
aI4
as(I10
I2
tp867
(lp868
I553
aI98
as(I33
I-2
tp869
(lp870
I0
aI534
as(I29
I5
tp871
(lp872
I0
aI90
as(I12
I-1
tp873
(lp874
I81
aI929
as(I16
I6
tp875
(lp876
I0
aI444
as(I32
I-5
tp877
(lp878
I0
aI668
as(I8
I-8
tp879
(lp880
I0
aI40
as(I17
I7
tp881
(lp882
I0
aI328
as(I31
I19
tp883
(lp884
I0
aI87
as(I18
I-18
tp885
(lp886
I0
aI128
as(I18
I4
tp887
(lp888
I0
aI371
as(I22
I-18
tp889
(lp890
I0
aI8
as(I21
I9
tp891
(lp892
I0
aI573
as(I19
I-7
tp893
(lp894
I0
aI12
as(I17
I-12
tp895
(lp896
I0
aI36
as(I22
I-1
tp897
(lp898
I0
aI68
as(I22
I6
tp899
(lp900
I0
aI239
as(I26
I-5
tp901
(lp902
I0
aI31
as(I18
I-6
tp903
(lp904
I0
aI7
as(I28
I-6
tp905
(lp906
I0
aI12
as(I23
I7
tp907
(lp908
I0
aI389
as(I27
I-5
tp909
(lp910
I0
aI23
as(I28
I-14
tp911
(lp912
I0
aI717
as(I30
I-6
tp913
(lp914
I0
aI204
as(I27
I-11
tp915
(lp916
I0
aI77
as(I12
I-6
tp917
(lp918
I174
aI36
as(I10
I-12
tp919
(lp920
I0
aI4
as(I14
I18
tp921
(lp922
I0
aI135
as(I26
I-4
tp923
(lp924
I0
aI105
as(I15
I11
tp925
(lp926
I0
aI411
as(I13
I7
tp927
(lp928
I0
aI1178
as(I6
I5
tp929
(lp930
I0
aI288
as(I26
I17
tp931
(lp932
I0
aI48
as(I24
I1
tp933
(lp934
I0
aI128
as(I24
I-10
tp935
(lp936
I0
aI36
as(I25
I-8
tp937
(lp938
I0
aI198
as(I21
I5
tp939
(lp940
I0
aI280
as(I9
I-6
tp941
(lp942
I0
aI23
as(I33
I-9
tp943
(lp944
I0
aI12
as(I32
I-14
tp945
(lp946
I131
aI1872
as(I7
I5
tp947
(lp948
I0
aI179
as(I13
I-16
tp949
(lp950
I0
aI137
as(I31
I-1
tp951
(lp952
I0
aI567
as(I17
I-10
tp953
(lp954
I0
aI41
as(I16
I19
tp955
(lp956
I0
aI48
as(I17
I-18
tp957
(lp958
I0
aI5
as(I31
I-2
tp959
(lp960
I0
aI307
as(I19
I-1
tp961
(lp962
I0
aI180
as(I17
I18
tp963
(lp964
I0
aI25
as(I16
I-8
tp965
(lp966
I0
aI2
as(I30
I-3
tp967
(lp968
I0
aI84
as(I32
I12
tp969
(lp970
I0
aI164
as(I9
I-3
tp971
(lp972
I0
aI5
as(I33
I9
tp973
(lp974
I101
aI2250
as(I34
I14
tp975
(lp976
I0
aI1948
as(I15
I16
tp977
(lp978
I0
aI9
as(I21
I-4
tp979
(lp980
I0
aI326
as(I13
I0
tp981
(lp982
I90
aI1874
as(I13
I-3
tp983
(lp984
I0
aI716
as(I22
I-6
tp985
(lp986
I6
aI151
as(I24
I-3
tp987
(lp988
I0
aI79
as(I25
I5
tp989
(lp990
I0
aI107
as(I11
I-7
tp991
(lp992
I166
aI467
as(I15
I-11
tp993
(lp994
I0
aI243
as(I26
I2
tp995
(lp996
I0
aI128
as(I27
I11
tp997
(lp998
I0
aI58
as(I10
I4
tp999
(lp1000
I430
aI231
as(I30
I4
tp1001
(lp1002
I0
aI346
as(I28
I12
tp1003
(lp1004
I0
aI261
as(I31
I1
tp1005
(lp1006
I1
aI866
as(I20
I-3
tp1007
(lp1008
I0
aI454
as(I12
I-4
tp1009
(lp1010
I0
aI114
as(I16
I10
tp1011
(lp1012
I7
aI426
as(I32
I-17
tp1013
(lp1014
I134
aI1159
as(I19
I7
tp1015
(lp1016
I0
aI537
as(I21
I-9
tp1017
(lp1018
I0
aI70
as(I22
I16
tp1019
(lp1020
I0
aI5
as(I20
I0
tp1021
(lp1022
I0
aI170
as(I31
I-19
tp1023
(lp1024
I0
aI2372
as(I17
I-7
tp1025
(lp1026
I0
aI24
as(I8
I6
tp1027
(lp1028
I0
aI5
as(I32
I3
tp1029
(lp1030
I45
aI456
as(I22
I10
tp1031
(lp1032
I0
aI198
as(I22
I-4
tp1033
(lp1034
I0
aI88
as(I29
I-5
tp1035
(lp1036
I0
aI33
as(I33
I2
tp1037
(lp1038
I269
aI1412
as(I18
I-2
tp1039
(lp1040
I0
aI64
as(I11
I9
tp1041
(lp1042
I6
aI0
as(I28
I-1
tp1043
(lp1044
I0
aI214
as(I27
I-7
tp1045
(lp1046
I0
aI2
as(I24
I15
tp1047
(lp1048
I0
aI139
as(I14
I6
tp1049
(lp1050
I0
aI1621
as(I13
I-14
tp1051
(lp1052
I0
aI138
as(I15
I7
tp1053
(lp1054
I0
aI1400
as(I25
I-17
tp1055
(lp1056
I0
aI3
as(I23
I-16
tp1057
(lp1058
I0
aI64
as(I26
I13
tp1059
(lp1060
I0
aI357
as(I14
I-9
tp1061
(lp1062
I0
aI233
as(I29
I16
tp1063
(lp1064
I0
aI11
as(I27
I0
tp1065
(lp1066
I0
aI324
as(I25
I-6
tp1067
(lp1068
I0
aI118
as(I21
I7
tp1069
(lp1070
I0
aI484
as(I30
I15
tp1071
(lp1072
I0
aI227
as(I28
I11
tp1073
(lp1074
I0
aI18
as(I31
I14
tp1075
(lp1076
I0
aI274
as(I29
I10
tp1077
(lp1078
I0
aI22
as(I16
I1
tp1079
(lp1080
I0
aI46
as(I30
I17
tp1081
(lp1082
I0
aI9
as(I19
I12
tp1083
(lp1084
I0
aI295
as(I17
I12
tp1085
(lp1086
I0
aI422
as(I31
I20
tp1087
(lp1088
I0
aI9
as(I25
I14
tp1089
(lp1090
I0
aI208
as(I18
I-11
tp1091
(lp1092
I0
aI104
as(I8
I4
tp1093
(lp1094
I0
aI126
as(I18
I11
tp1095
(lp1096
I0
aI223
as(I22
I-15
tp1097
(lp1098
I0
aI107
as(I23
I18
tp1099
(lp1100
I0
aI125
as(I17
I-14
tp1101
(lp1102
I0
aI8
as(I23
I4
tp1103
(lp1104
I0
aI305
as(I19
I-14
tp1105
(lp1106
I0
aI143
as(I23
I-3
tp1107
(lp1108
I0
aI7
as(I30
I-17
tp1109
(lp1110
I0
aI655
as(I22
I13
tp1111
(lp1112
I0
aI226
as(I29
I-12
tp1113
(lp1114
I8
aI303
as(I31
I-16
tp1115
(lp1116
I30
aI629
as(I10
I9
tp1117
(lp1118
I0
aI37
as(I28
I-11
tp1119
(lp1120
I0
aI150
as(I30
I-15
tp1121
(lp1122
I23
aI366
as(I27
I-2
tp1123
(lp1124
I0
aI135
as(I20
I-10
tp1125
(lp1126
I0
aI357
as(I29
I-18
tp1127
(lp1128
I0
aI48
as(I14
I9
tp1129
(lp1130
I0
aI524
as(I26
I-13
tp1131
(lp1132
I3
aI60
as(I9
I1
tp1133
(lp1134
I0
aI2
as(I15
I12
tp1135
(lp1136
I0
aI428
as(I15
I-5
tp1137
(lp1138
I0
aI85
as(I13
I12
tp1139
(lp1140
I0
aI125
as(I22
I7
tp1141
(lp1142
I0
aI290
as(I20
I11
tp1143
(lp1144
I0
aI158
as(I14
I-1
tp1145
(lp1146
I23
aI3676
as(I24
I-15
tp1147
(lp1148
I0
aI4
as(I28
I2
tp1149
(lp1150
I0
aI513
as(I29
I3
tp1151
(lp1152
I0
aI363
as(I18
I-13
tp1153
(lp1154
I0
aI119
as(I32
I-3
tp1155
(lp1156
I0
aI426
as(I11
I2
tp1157
(lp1158
I225
aI594
as(I19
I3
tp1159
(lp1160
I0
aI8
as(I17
I5
tp1161
(lp1162
I0
aI311
as(I20
I-13
tp1163
(lp1164
I0
aI393
as(I18
I2
tp1165
(lp1166
I0
aI311
as(I19
I-5
tp1167
(lp1168
I0
aI64
as(I16
I-10
tp1169
(lp1170
I0
aI166
as(I23
I1
tp1171
(lp1172
I0
aI16
as(I7
I-4
tp1173
(lp1174
I0
aI299
as(I30
I-8
tp1175
(lp1176
I0
aI714
as(I27
I-9
tp1177
(lp1178
I0
aI249
as(I18
I-1
tp1179
(lp1180
I0
aI213
as(I14
I16
tp1181
(lp1182
I0
aI2
as(I26
I-6
tp1183
(lp1184
I0
aI31
as(I13
I5
tp1185
(lp1186
I0
aI356
as(I24
I3
tp1187
(lp1188
I0
aI42
as(I24
I-8
tp1189
(lp1190
I4
aI247
as(I25
I2
tp1191
(lp1192
I0
aI115
as(I22
I-2
tp1193
(lp1194
I0
aI112
as(I23
I-10
tp1195
(lp1196
I0
aI131
as(I16
I-15
tp1197
(lp1198
I0
aI55
as(I21
I12
tp1199
(lp1200
I0
aI206
as(I13
I8
tp1201
(lp1202
I0
aI1485
as(I32
I-12
tp1203
(lp1204
I334
aI1788
as(I30
I3
tp1205
(lp1206
I0
aI526
as(I9
I-10
tp1207
(lp1208
I0
aI11
as(I7
I7
tp1209
(lp1210
I0
aI345
as(I33
I-17
tp1211
(lp1212
I0
aI131
as(I21
I16
tp1213
(lp1214
I0
aI5
as(I17
I2
tp1215
(lp1216
I0
aI305
as(I19
I0
tp1217
(lp1218
I0
aI48
as(I25
I8
tp1219
(lp1220
I0
aI8
as(I22
I-13
tp1221
(lp1222
I0
aI182
as(I6
I3
tp1223
(lp1224
I0
aI84
as(I23
I10
tp1225
(lp1226
I0
aI55
as(I8
I1
tp1227
(lp1228
I0
aI206
as(I32
I14
tp1229
(lp1230
I0
aI275
as(I33
I15
tp1231
(lp1232
I0
aI465
as(I25
I-1
tp1233
(lp1234
I0
aI189
as(I34
I12
tp1235
(lp1236
I105
aI352
as(I15
I18
tp1237
(lp1238
I0
aI110
as(I25
I13
tp1239
(lp1240
I0
aI176
as(I24
I10
tp1241
(lp1242
I0
aI24
as(I26
I-17
tp1243
(lp1244
I0
aI160
as(I25
I11
tp1245
(lp1246
I0
aI318
as(I15
I-9
tp1247
(lp1248
I0
aI146
as(I28
I16
tp1249
(lp1250
I0
aI1
as(I26
I0
tp1251
(lp1252
I0
aI367
as(I14
I-14
tp1253
(lp1254
I0
aI124
as(I17
I-9
tp1255
(lp1256
I0
aI1
as(I27
I13
tp1257
(lp1258
I0
aI645
as(I30
I10
tp1259
(lp1260
I41
aI127
as(I28
I14
tp1261
(lp1262
I0
aI366
as(I31
I3
tp1263
(lp1264
I0
aI490
as(I29
I15
tp1265
(lp1266
I0
aI208
as(I20
I15
tp1267
(lp1268
I0
aI160
as(I16
I12
tp1269
(lp1270
I0
aI399
as(I11
I0
tp1271
(lp1272
I285
aI523
as(I19
I9
tp1273
(lp1274
I0
aI58
as(I20
I13
tp1275
(lp1276
I0
aI221
as(I11
I-1
tp1277
(lp1278
I264
aI573
as(I20
I2
tp1279
(lp1280
I0
aI283
as(I18
I14
tp1281
(lp1282
I0
aI286
as(I31
I-17
tp1283
(lp1284
I19
aI1706
as(I21
I3
tp1285
(lp1286
I0
aI342
as(I19
I-17
tp1287
(lp1288
I0
aI239
as(I8
I8
tp1289
(lp1290
I0
aI18
as(I32
I5
tp1291
(lp1292
I56
aI290
as(I22
I8
tp1293
(lp1294
I0
aI364
as(I29
I-7
tp1295
(lp1296
I0
aI115
as(I33
I0
tp1297
(lp1298
I56
aI1841
as(I31
I-11
tp1299
(lp1300
I28
aI590
as(I28
I-8
tp1301
(lp1302
I0
aI37
as(I13
I-2
tp1303
(lp1304
I4
aI1004
as(I12
I11
tp1305
(lp1306
I0
aI1
as(I24
I20
tp1307
(lp1308
I0
aI21
as(I24
I17
tp1309
(lp1310
I0
aI54
as(I14
I4
tp1311
(lp1312
I0
aI1453
as(I26
I-10
tp1313
(lp1314
I0
aI118
as(I22
I12
tp1315
(lp1316
I0
aI306
as(I25
I12
tp1317
(lp1318
I0
aI343
as(I15
I1
tp1319
(lp1320
I0
aI245
as(I15
I-4
tp1321
(lp1322
I0
aI102
as(I13
I17
tp1323
(lp1324
I0
aI56
as(I26
I11
tp1325
(lp1326
I0
aI76
as(I14
I-11
tp1327
(lp1328
I0
aI130
as(I26
I-1
tp1329
(lp1330
I0
aI175
as(I27
I2
tp1331
(lp1332
I0
aI371
as(I15
I14
tp1333
(lp1334
I0
aI396
as(I30
I13
tp1335
(lp1336
I0
aI331
as(I28
I5
tp1337
(lp1338
I0
aI17
as(I23
I-12
tp1339
(lp1340
I0
aI30
as(I31
I8
tp1341
(lp1342
I16
aI366
as(I29
I8
tp1343
(lp1344
I0
aI109
as(I8
I-2
tp1345
(lp1346
I0
aI555
as(I25
I-10
tp1347
(lp1348
I0
aI93
as(I16
I3
tp1349
(lp1350
I3
aI238
as(I32
I-8
tp1351
(lp1352
I0
aI2048
as(I21
I-8
tp1353
(lp1354
I0
aI56
as(I19
I14
tp1355
(lp1356
I0
aI227
as(I21
I-2
tp1357
(lp1358
I0
aI305
as(I23
I-18
tp1359
(lp1360
I0
aI111
as(I20
I9
tp1361
(lp1362
I0
aI218
as(I18
I9
tp1363
(lp1364
I0
aI207
as(I9
I-2
tp1365
(lp1366
I0
aI53
as(I17
I-16
tp1367
(lp1368
I0
aI140
as(I19
I-12
tp1369
(lp1370
I0
aI82
as(I30
I-19
tp1371
(lp1372
I0
aI119
as(I17
I11
tp1373
(lp1374
I0
aI141
as(I22
I3
tp1375
(lp1376
I0
aI256
as(I13
I-10
tp1377
(lp1378
I0
aI128
as(I29
I-14
tp1379
(lp1380
I2
aI460
as(I22
I-3
tp1381
(lp1382
I0
aI124
as(I31
I-14
tp1383
(lp1384
I15
aI602
as(I23
I8
tp1385
(lp1386
I0
aI382
as(I28
I-9
tp1387
(lp1388
I0
aI181
as(I30
I-9
tp1389
(lp1390
I0
aI535
as(I33
I-13
tp1391
(lp1392
I0
aI47
as(I27
I-16
tp1393
(lp1394
I1
aI97
as(I29
I-20
tp1395
(lp1396
I0
aI21
as(I26
I-15
tp1397
(lp1398
I0
aI21
as(I28
I-19
tp1399
(lp1400
I0
aI2
as(I6
I4
tp1401
(lp1402
I0
aI158
as(I13
I10
tp1403
(lp1404
I0
aI143
as(I26
I18
tp1405
(lp1406
I0
aI107
as(I14
I-4
tp1407
(lp1408
I0
aI1351
as(I24
I-13
tp1409
(lp1410
I0
aI6
as(I12
I-5
tp1411
(lp1412
I195
aI9
as(I21
I-14
tp1413
(lp1414
I0
aI191
as(I25
I-4
tp1415
(lp1416
I0
aI230
as(I33
I-14
tp1417
(lp1418
I0
aI77
as(I29
I1
tp1419
(lp1420
I0
aI372
as(I8
I-4
tp1421
(lp1422
I0
aI391
as(I7
I8
tp1423
(lp1424
I0
aI142
as(I20
I16
tp1425
(lp1426
I0
aI57
as(I18
I0
tp1427
(lp1428
I0
aI380
as(I27
I-1
tp1429
(lp1430
I0
aI88
as(I19
I-3
tp1431
(lp1432
I0
aI183
as(I11
I-4
tp1433
(lp1434
I0
aI6
as(I32
I19
tp1435
(lp1436
I0
aI74
as(I18
I13
tp1437
(lp1438
I0
aI502
as(I31
I-5
tp1439
(lp1440
I0
aI174
as(I7
I-2
tp1441
(lp1442
I0
aI800
as(I21
I-17
tp1443
(lp1444
I0
aI238
as(I30
I-1
tp1445
(lp1446
I0
aI470
as(I32
I9
tp1447
(lp1448
I50
aI343
as(I23
I2
tp1449
(lp1450
I0
aI7
as(I26
I-8
tp1451
(lp1452
I0
aI193
as(I23
I-5
tp1453
(lp1454
I0
aI30
as(I17
I-4
tp1455
(lp1456
I0
aI37
as(I13
I3
tp1457
(lp1458
I0
aI674
as(I12
I9
tp1459
(lp1460
I0
aI5
as(I9
I-1
tp1461
(lp1462
I0
aI60
as(I24
I-6
tp1463
(lp1464
I0
aI25
as(I27
I16
tp1465
(lp1466
I0
aI12
as(I25
I0
tp1467
(lp1468
I0
aI213
as(I26
I7
tp1469
(lp1470
I0
aI36
as(I21
I14
tp1471
(lp1472
I0
aI251
as(I32
I-10
tp1473
(lp1474
I181
aI1497
as(I30
I1
tp1475
(lp1476
I0
aI427
as(I23
I-6
tp1477
(lp1478
I0
aI83
as(I24
I-1
tp1479
(lp1480
I0
aI26
as(I31
I4
tp1481
(lp1482
I0
aI352
as(I20
I-14
tp1483
(lp1484
I0
aI408
as(I25
I-16
tp1485
(lp1486
I0
aI2
as(I19
I2
tp1487
(lp1488
I0
aI27
as(I16
I-17
tp1489
(lp1490
I0
aI58
as(I20
I5
tp1491
(lp1492
I0
aI168
as(I20
I-17
tp1493
(lp1494
I0
aI320
as(I26
I20
tp1495
(lp1496
I0
aI3
as(I34
I16
tp1497
(lp1498
I0
aI2449
as(I32
I0
tp1499
(lp1500
I92
aI548
as(I13
I-8
tp1501
(lp1502
I0
aI419
as(I29
I-2
tp1503
(lp1504
I0
aI206
as(I33
I13
tp1505
(lp1506
I0
aI718
as(I14
I-2
tp1507
(lp1508
I2
aI5514
as(I9
I2
tp1509
(lp1510
I5
aI0
as(I34
I10
tp1511
(lp1512
I84
aI39
as(I24
I12
tp1513
(lp1514
I0
aI53
as(I14
I3
tp1515
(lp1516
I5
aI852
as(I22
I-9
tp1517
(lp1518
I0
aI230
as(I13
I-11
tp1519
(lp1520
I0
aI92
as(I15
I-15
tp1521
(lp1522
I0
aI4
as(I28
I18
tp1523
(lp1524
I0
aI79
as(I12
I-12
tp1525
(lp1526
I0
aI31
as(I14
I-16
tp1527
(lp1528
I0
aI132
as(I20
I-6
tp1529
(lp1530
I0
aI72
as(I26
I3
tp1531
(lp1532
I0
aI310
as(I30
I8
tp1533
(lp1534
I54
aI467
as(I28
I8
tp1535
(lp1536
I0
aI5
as(I29
I19
tp1537
(lp1538
I0
aI191
as(I23
I-11
tp1539
(lp1540
I0
aI137
as(I29
I13
tp1541
(lp1542
I0
aI450
as(I12
I-2
tp1543
(lp1544
I32
aI778
as(I16
I14
tp1545
(lp1546
I0
aI408
as(I30
I18
tp1547
(lp1548
I0
aI101
as(I19
I11
tp1549
(lp1550
I0
aI48
as(I21
I-13
tp1551
(lp1552
I0
aI400
as(I18
I-10
tp1553
(lp1554
I0
aI40
as(I18
I-7
tp1555
(lp1556
I0
aI44
as(I10
I-8
tp1557
(lp1558
I158
aI2
as(I17
I-3
tp1559
(lp1560
I0
aI218
as(I19
I-15
tp1561
(lp1562
I0
aI139
as(I27
I10
tp1563
(lp1564
I0
aI10
as(I32
I7
tp1565
(lp1566
I36
aI363
as(I22
I14
tp1567
(lp1568
I0
aI325
as(I29
I-9
tp1569
(lp1570
I0
aI261
as(I33
I6
tp1571
(lp1572
I168
aI1898
as(I31
I-9
tp1573
(lp1574
I0
aI691
as(I10
I0
tp1575
(lp1576
I157
aI0
as(I30
I-14
tp1577
(lp1578
I27
aI716
as(I21
I-11
tp1579
(lp1580
I0
aI259
as(I27
I-3
tp1581
(lp1582
I0
aI37
as(I24
I19
tp1583
(lp1584
I0
aI159
as(I14
I10
tp1585
(lp1586
I0
aI383
as(I26
I-12
tp1587
(lp1588
I0
aI272
as(I25
I-3
tp1589
(lp1590
I0
aI212
as(I13
I-18
tp1591
(lp1592
I0
aI75
as(I15
I3
tp1593
(lp1594
I0
aI618
as(I15
I-2
tp1595
(lp1596
I0
aI536
as(I25
I-13
tp1597
(lp1598
I0
aI18
as(I12
I-13
tp1599
(lp1600
I0
aI18
as(I14
I-5
tp1601
(lp1602
I0
aI1119
as(I10
I-9
tp1603
(lp1604
I0
aI40
as(I27
I4
tp1605
(lp1606
I4
aI357
as(I21
I-1
tp1607
(lp1608
I0
aI86
as(I20
I12
tp1609
(lp1610
I0
aI230
as(I28
I7
tp1611
(lp1612
I0
aI11
as(I31
I10
tp1613
(lp1614
I71
aI271
as(I29
I6
tp1615
(lp1616
I21
aI201
as(I16
I5
tp1617
(lp1618
I0
aI470
as(I32
I-6
tp1619
(lp1620
I0
aI945
as(I8
I-9
tp1621
(lp1622
I0
aI6
as(I23
I3
tp1623
(lp1624
I0
aI224
as(I23
I-8
tp1625
(lp1626
I0
aI205
as(I17
I0
tp1627
(lp1628
I0
aI117
as(I24
I-4
tp1629
(lp1630
I0
aI126
as(I31
I16
tp1631
(lp1632
I0
aI1
as(I22
I9
tp1633
(lp1634
I0
aI254
as(I18
I-15
tp1635
(lp1636
I0
aI216
as(I8
I-6
tp1637
(lp1638
I0
aI458
as(I18
I7
tp1639
(lp1640
I0
aI486
as(I13
I14
tp1641
(lp1642
I0
aI112
as(I21
I10
tp1643
(lp1644
I0
aI353
as(I18
I10
tp1645
(lp1646
I0
aI34
as(I19
I-10
tp1647
(lp1648
I0
aI123
as(I22
I1
tp1649
(lp1650
I0
aI423
as(I29
I-16
tp1651
(lp1652
I2
aI404
as(I31
I-4
tp1653
(lp1654
I0
aI25
as(I28
I-15
tp1655
(lp1656
I0
aI545
as(I30
I-11
tp1657
(lp1658
I7
aI646
as(I21
I-7
tp1659
(lp1660
I0
aI33
as(I13
I-6
tp1661
(lp1662
I15
aI214
as(I27
I-14
tp1663
(lp1664
I7
aI264
as(I30
I-2
tp1665
(lp1666
I0
aI314
as(I16
I11
tp1667
(lp1668
I0
aI325
as(I14
I13
tp1669
(lp1670
I0
aI402
as(I12
I5
tp1671
(lp1672
I0
aI387
as(I23
I12
tp1673
(lp1674
I0
aI37
as(I28
I-17
tp1675
(lp1676
I0
aI72
as(I15
I8
tp1677
(lp1678
I0
aI626
as(I25
I-12
tp1679
(lp1680
I0
aI59
as(I26
I16
tp1681
(lp1682
I0
aI8
as(I24
I0
tp1683
(lp1684
I0
aI57
as(I24
I-11
tp1685
(lp1686
I0
aI65
as(I10
I3
tp1687
(lp1688
I516
aI68
as(I33
I-16
tp1689
(lp1690
I0
aI156
as(I20
I-8
tp1691
(lp1692
I0
aI328
as(I32
I-15
tp1693
(lp1694
I142
aI1912
as(I8
I-1
tp1695
(lp1696
I0
aI84
as(I20
I-15
tp1697
(lp1698
I0
aI304
as(I16
I18
tp1699
(lp1700
I0
aI34
as(I17
I-17
tp1701
(lp1702
I0
aI5
as(I17
I19
tp1703
(lp1704
I0
aI25
as(I26
I-7
tp1705
(lp1706
I0
aI131
as(I12
I2
tp1707
(lp1708
I7
aI845
as(I24
I5
tp1709
(lp1710
I0
aI75
as(I18
I-5
tp1711
(lp1712
I0
aI61
as(I33
I16
tp1713
(lp1714
I0
aI453
as(I10
I-6
tp1715
(lp1716
I199
aI0
as(I27
I17
tp1717
(lp1718
I0
aI22
as(I30
I-4
tp1719
(lp1720
I0
aI134
as(I32
I11
tp1721
(lp1722
I70
aI339
as(I33
I10
tp1723
(lp1724
I112
aI2218
as(I15
I17
tp1725
(lp1726
I0
aI55
as(I13
I1
tp1727
(lp1728
I5
aI1235
as(I24
I7
tp1729
(lp1730
I0
aI185
as(I22
I4
tp1731
(lp1732
I0
aI367
as(I33
I-1
tp1733
(lp1734
I0
aI1245
as(I27
I18
tp1735
(lp1736
I0
aI42
as(I25
I6
tp1737
(lp1738
I0
aI14
as(I21
I4
tp1739
(lp1740
I0
aI458
as(I17
I9
tp1741
(lp1742
I0
aI291
as(I26
I5
tp1743
(lp1744
I0
aI104
as(I14
I-17
tp1745
(lp1746
I0
aI122
as(I27
I-17
tp1747
(lp1748
I0
aI206
as(I27
I8
tp1749
(lp1750
I0
aI17
as(I30
I7
tp1751
(lp1752
I45
aI241
as.